; Function Attrs: mustprogress uwtable
define hidden void @_ZN4ncnn8BinaryOpC2Ev(ptr noundef nonnull align 8 dereferenceable(220) %0) unnamed_addr #0 align 2 {
  tail call void @_ZN4ncnn5LayerC2Ev(ptr noundef nonnull align 8 dereferenceable(208) %0)
  store ptr getelementptr inbounds inrange(-16, 80) (i8, ptr @_ZTVN4ncnn8BinaryOpE, i64 16), ptr %0, align 8
  %2 = getelementptr inbounds nuw i8, ptr %0, i64 8
  store i8 0, ptr %2, align 8
  %3 = getelementptr inbounds nuw i8, ptr %0, i64 9
  store i8 0, ptr %3, align 1
  ret void
}